; Function Attrs: mustprogress uwtable
define hidden void @_ZN14tactic_manager6insertEP10tactic_cmd(ptr noundef nonnull align 8 dereferenceable(96) %this, ptr noundef %c) local_unnamed_addr #4 align 2 {
entry:
  %ref.tmp.i = alloca %struct._key_data.19, align 8
  %retval.sroa.0.0.copyload.i = load ptr, ptr %c, align 8
  call void @llvm.lifetime.start.p0(i64 16, ptr nonnull %ref.tmp.i)
  %0 = ptrtoint ptr %retval.sroa.0.0.copyload.i to i64
  store i64 %0, ptr %ref.tmp.i, align 8
  %m_value.i.i = getelementptr inbounds i8, ptr %ref.tmp.i, i64 8
  store ptr %c, ptr %m_value.i.i, align 8
  call void @_ZN14core_hashtableI17default_map_entryI6symbolP10tactic_cmdEN9table2mapIS4_16symbol_hash_proc14symbol_eq_procE15entry_hash_procENS8_13entry_eq_procEE6insertEO9_key_dataIS1_S3_E(ptr noundef nonnull align 8 dereferenceable(20) %this, ptr noundef nonnull align 8 dereferenceable(16) %ref.tmp.i)
  call void @llvm.lifetime.end.p0(i64 16, ptr nonnull %ref.tmp.i)
  %m_tactics = getelementptr inbounds i8, ptr %this, i64 72
  %1 = load ptr, ptr %m_tactics, align 8
  %cmp.i = icmp eq ptr %1, null
  br i1 %cmp.i, label %if.then.i, label %lor.lhs.false.i

lor.lhs.false.i:                                  ; preds = %entry
  %arrayidx.i = getelementptr inbounds i8, ptr %1, i64 -4
  %2 = load i32, ptr %arrayidx.i, align 4
  %arrayidx4.i = getelementptr inbounds i8, ptr %1, i64 -8
  %3 = load i32, ptr %arrayidx4.i, align 4
  %cmp5.i = icmp eq i32 %2, %3
  br i1 %cmp5.i, label %if.then.i, label %_ZN6vectorIP10tactic_cmdLb0EjE9push_backERKS1_.exit

if.then.i:                                        ; preds = %lor.lhs.false.i, %entry
  call void @_ZN6vectorIP10tactic_cmdLb0EjE13expand_vectorEv(ptr noundef nonnull align 8 dereferenceable(8) %m_tactics)
  %.pre.i = load ptr, ptr %m_tactics, align 8
  %arrayidx8.phi.trans.insert.i = getelementptr inbounds i8, ptr %.pre.i, i64 -4
  %.pre1.i = load i32, ptr %arrayidx8.phi.trans.insert.i, align 4
  br label %_ZN6vectorIP10tactic_cmdLb0EjE9push_backERKS1_.exit

_ZN6vectorIP10tactic_cmdLb0EjE9push_backERKS1_.exit: ; preds = %lor.lhs.false.i, %if.then.i
  %4 = phi i32 [ %.pre1.i, %if.then.i ], [ %2, %lor.lhs.false.i ]
  %5 = phi ptr [ %.pre.i, %if.then.i ], [ %1, %lor.lhs.false.i ]
  %idx.ext.i = zext i32 %4 to i64
  %add.ptr.i = getelementptr inbounds ptr, ptr %5, i64 %idx.ext.i
  store ptr %c, ptr %add.ptr.i, align 8
  %6 = load ptr, ptr %m_tactics, align 8
  %arrayidx10.i = getelementptr inbounds i8, ptr %6, i64 -4
  %7 = load i32, ptr %arrayidx10.i, align 4
  %inc.i = add i32 %7, 1
  store i32 %inc.i, ptr %arrayidx10.i, align 4
  ret void
}